target datalayout = "e-m:e-p270:32:32-p271:32:32-p272:64:64-i64:64-i128:128-f80:128-n8:16:32:64-S128"
target triple = "x86_64-pc-linux-gnu"

%struct.__va_list_tag = type { i32, i32, ptr, ptr }

; Function Attrs: mustprogress noreturn uwtable
define hidden void @_Z14luaG_runerrorLP9lua_StatePKcz(ptr noundef %0, ptr noundef %1, ...) #5 {
  %3 = alloca ptr, align 8
  %4 = alloca ptr, align 8
  %5 = alloca [1 x %struct.__va_list_tag], align 16
  %6 = alloca [512 x i8], align 16
  store ptr %0, ptr %3, align 8, !tbaa !4
  store ptr %1, ptr %4, align 8, !tbaa !49
  call void @llvm.lifetime.start.p0(i64 24, ptr %5) #11
  %7 = getelementptr inbounds [1 x %struct.__va_list_tag], ptr %5, i64 0, i64 0
  call void @llvm.va_start.p0(ptr %7)
  call void @llvm.lifetime.start.p0(i64 512, ptr %6) #11
  %8 = getelementptr inbounds [512 x i8], ptr %6, i64 0, i64 0
  %9 = load ptr, ptr %4, align 8, !tbaa !49
  %10 = getelementptr inbounds [1 x %struct.__va_list_tag], ptr %5, i64 0, i64 0
  %11 = call i32 @vsnprintf(ptr noundef %8, i64 noundef 512, ptr noundef %9, ptr noundef %10) #11
  %12 = getelementptr inbounds [1 x %struct.__va_list_tag], ptr %5, i64 0, i64 0
  call void @llvm.va_end.p0(ptr %12)
  %13 = load ptr, ptr %3, align 8, !tbaa !4
  call void @_Z17lua_rawcheckstackP9lua_Statei(ptr noundef %13, i32 noundef 1)
  %14 = load ptr, ptr %3, align 8, !tbaa !4
  %15 = getelementptr inbounds [512 x i8], ptr %6, i64 0, i64 0
  call void @_ZL9pusherrorP9lua_StatePKc(ptr noundef %14, ptr noundef %15)
  %16 = load ptr, ptr %3, align 8, !tbaa !4
  call void @_Z10luaD_throwP9lua_Statei(ptr noundef %16, i32 noundef 2) #12
  unreachable
}