; Function Attrs: mustprogress noreturn uwtable
define hidden void @_Z14luaG_runerrorLP9lua_StatePKcz(ptr noundef %0, ptr noundef readonly captures(none) %1, ...) local_unnamed_addr #5 {
  %3 = alloca [1 x %struct.__va_list_tag], align 16
  %4 = alloca [512 x i8], align 16
  call void @llvm.lifetime.start.p0(i64 24, ptr nonnull %3) #16
  call void @llvm.va_start.p0(ptr nonnull %3)
  call void @llvm.lifetime.start.p0(i64 512, ptr nonnull %4) #16
  %5 = call i32 @vsnprintf(ptr noundef nonnull %4, i64 noundef 512, ptr noundef %1, ptr noundef nonnull %3) #16
  call void @llvm.va_end.p0(ptr nonnull %3)
  call void @_Z17lua_rawcheckstackP9lua_Statei(ptr noundef %0, i32 noundef 1)
  call fastcc void @_ZL9pusherrorP9lua_StatePKc(ptr noundef %0, ptr noundef nonnull %4)
  call void @_Z10luaD_throwP9lua_Statei(ptr noundef %0, i32 noundef 2) #15
  unreachable
}